Certificate:
    Data:
        Version: 3 (0x2)
        Serial Number: 1 (0x1)
        Signature Algorithm: ecdsa-with-SHA384
        Issuer: O=Home Assistant OS, CN=Home Assistant OS Provisioning CA Root
        Validity
            Not Before: Jun  9 08:50:48 2026 GMT
            Not After : Jun  9 08:50:48 2046 GMT
        Subject: O=Home Assistant OS, CN=Home Assistant OS Provisioning CA Root
        Subject Public Key Info:
            Public Key Algorithm: id-ecPublicKey
                Public-Key: (384 bit)
                pub:
                    04:a0:5d:4c:00:e8:37:6b:f2:ff:c4:ad:88:5d:f5:
                    37:6f:79:fc:a6:7a:5e:a1:cc:f8:98:54:9b:ff:93:
                    85:1a:66:62:ec:07:96:73:2f:38:2d:dc:11:63:1e:
                    34:4d:45:b8:f7:b9:4f:f5:14:5e:58:4d:1a:3e:b5:
                    b8:65:c9:4e:60:6c:ce:3b:06:16:ea:75:af:d5:23:
                    53:80:f9:96:44:ff:55:af:e3:ba:eb:21:92:1b:a2:
                    ab:a6:bb:ee:d4:9e:fb
                ASN1 OID: secp384r1
                NIST CURVE: P-384
        X509v3 extensions:
            X509v3 Subject Key Identifier: 
                99:B7:92:9D:76:D4:14:E8:F1:11:99:F9:0C:0A:D0:54:81:50:80:D6
            X509v3 Authority Key Identifier: 
                99:B7:92:9D:76:D4:14:E8:F1:11:99:F9:0C:0A:D0:54:81:50:80:D6
            X509v3 Basic Constraints: critical
                CA:TRUE
            X509v3 Key Usage: critical
                Certificate Sign, CRL Sign
    Signature Algorithm: ecdsa-with-SHA384
    Signature Value:
        30:64:02:30:09:d1:15:1b:f6:07:43:6c:75:ee:68:3e:c1:39:
        47:67:39:60:71:ca:22:ce:8a:11:66:df:6d:7e:a2:5e:61:81:
        b2:3c:c3:79:97:c2:cd:1d:a5:d4:d6:f1:64:b9:9e:af:02:30:
        7b:2e:09:70:74:31:d0:61:45:17:ba:12:c2:67:d9:a8:0d:d8:
        6b:df:40:40:f9:34:98:b0:48:0e:75:23:b4:0f:34:82:91:f3:
        ad:4e:cb:de:8b:33:cd:8e:62:d9:e0:9c
-----BEGIN CERTIFICATE-----
MIICKDCCAa+gAwIBAgIBATAKBggqhkjOPQQDAzBNMRowGAYDVQQKDBFIb21lIEFz
c2lzdGFudCBPUzEvMC0GA1UEAwwmSG9tZSBBc3Npc3RhbnQgT1MgUHJvdmlzaW9u
aW5nIENBIFJvb3QwHhcNMjYwNjA5MDg1MDQ4WhcNNDYwNjA5MDg1MDQ4WjBNMRow
GAYDVQQKDBFIb21lIEFzc2lzdGFudCBPUzEvMC0GA1UEAwwmSG9tZSBBc3Npc3Rh
bnQgT1MgUHJvdmlzaW9uaW5nIENBIFJvb3QwdjAQBgcqhkjOPQIBBgUrgQQAIgNi
AASgXUwA6Ddr8v/ErYhd9Tdvefymel6hzPiYVJv/k4UaZmLsB5ZzLzgt3BFjHjRN
Rbj3uU/1FF5YTRo+tbhlyU5gbM47Bhbqda/VI1OA+ZZE/1Wv47rrIZIboqumu+7U
nvujYzBhMB0GA1UdDgQWBBSZt5KddtQU6PERmfkMCtBUgVCA1jAfBgNVHSMEGDAW
gBSZt5KddtQU6PERmfkMCtBUgVCA1jAPBgNVHRMBAf8EBTADAQH/MA4GA1UdDwEB
/wQEAwIBBjAKBggqhkjOPQQDAwNnADBkAjAJ0RUb9gdDbHXuaD7BOUdnOWBxyiLO
ihFm321+ol5hgbI8w3mXws0dpdTW8WS5nq8CMHsuCXB0MdBhRRe6EsJn2agN2Gvf
QED5NJiwSA51I7QPNIKR861Oy96LM82OYtngnA==
-----END CERTIFICATE-----
Certificate:
    Data:
        Version: 3 (0x2)
        Serial Number: 1 (0x1)
    Signature Algorithm: sha256WithRSAEncryption
        Issuer: O=HassOS, CN=HassOS Provisioning CA Root
        Validity
            Not Before: May 15 16:35:54 2018 GMT
            Not After : May 14 16:35:54 2028 GMT
        Subject: O=HassOS, CN=HassOS Provisioning CA Root
        Subject Public Key Info:
            Public Key Algorithm: rsaEncryption
                Public-Key: (2048 bit)
                Modulus:
                    00:a5:81:96:24:f6:eb:ac:0b:10:72:34:c8:41:70:
                    f5:29:9c:1c:1e:d9:a6:68:a3:ea:c5:e4:68:e7:b5:
                    76:2e:13:e0:0e:fe:8e:c4:2f:d2:76:2c:76:63:15:
                    8d:7e:7f:8a:9f:d8:9a:66:94:b9:b4:6f:5e:bc:a9:
                    59:59:12:fa:bb:7b:af:34:95:79:dd:2d:b1:3e:0e:
                    16:27:92:40:9d:15:55:34:b9:7d:dd:63:2e:64:f9:
                    65:46:e9:b2:de:66:d8:e5:12:9d:af:ca:db:3e:44:
                    15:57:8f:15:17:58:9d:2d:9b:1e:79:7b:ec:eb:28:
                    b3:11:81:a3:34:bb:b5:5d:08:a4:6b:4e:7e:7e:ec:
                    d3:e3:b9:d9:2d:66:e8:04:be:09:d3:75:86:8f:86:
                    94:01:aa:c1:0d:7e:28:74:27:da:c6:b8:d5:bf:94:
                    a0:d2:f5:bf:88:72:40:21:fe:4c:aa:39:06:35:29:
                    ee:c0:f5:f0:f0:85:d0:6b:ea:ee:c7:b7:54:aa:df:
                    e9:e4:cf:cd:5a:1a:61:e5:63:be:3c:7f:4b:6c:ae:
                    79:20:07:e0:44:c5:3d:c2:df:f8:04:64:22:2b:fb:
                    11:cf:99:0e:ba:1f:6b:51:56:ea:27:ca:a6:70:76:
                    19:2f:16:24:35:d9:0a:05:cf:b6:9d:ae:82:4a:e0:
                    5a:c5
                Exponent: 65537 (0x10001)
        X509v3 extensions:
            X509v3 Subject Key Identifier: 
                49:69:2D:A8:24:2F:B0:AC:E6:9A:02:6A:D0:FC:9A:AA:73:9B:62:71
            X509v3 Authority Key Identifier: 
                keyid:49:69:2D:A8:24:2F:B0:AC:E6:9A:02:6A:D0:FC:9A:AA:73:9B:62:71
                DirName:/O=HassOS/CN=HassOS Provisioning CA Root
                serial:01

            X509v3 Basic Constraints: 
                CA:TRUE
    Signature Algorithm: sha256WithRSAEncryption
         08:35:23:fd:fd:da:80:5a:c9:c5:b1:2e:9e:3d:b1:57:7e:ea:
         72:cd:c4:df:b4:5f:a4:47:84:d5:25:6f:c2:27:66:6d:e5:fc:
         91:99:7d:81:7e:38:09:1d:d9:7e:31:fd:db:4b:a3:52:f8:6a:
         98:53:dd:dd:be:21:b3:de:af:01:b5:e4:b1:a6:e4:7b:40:27:
         0c:dc:89:e4:34:78:56:1b:bb:01:e3:2e:90:ee:94:8b:9d:2e:
         f7:37:da:4c:b1:02:ef:7d:53:62:7f:9b:3b:e7:70:44:aa:4e:
         5f:d0:16:a5:1a:2b:62:0b:9e:55:07:12:25:3c:bf:c4:26:52:
         5e:10:c5:b6:25:a7:f7:cd:3b:03:07:bb:66:8f:4a:e6:84:c3:
         06:38:43:ab:2b:c3:29:7c:cb:aa:5f:23:2e:a7:e6:6b:5d:e5:
         dd:d9:ea:2c:59:46:e5:f3:6c:73:9b:eb:ef:74:56:93:f0:e9:
         3c:17:03:57:b6:17:3f:de:2f:2e:1d:6a:65:d8:71:88:6f:ad:
         19:48:d3:3a:05:46:d2:65:71:fa:97:73:38:0c:1d:d2:83:48:
         b1:16:61:7c:f1:db:b6:06:5b:46:8d:45:4c:f4:af:b2:da:b6:
         ca:47:54:f6:e7:37:9e:7a:d6:0c:88:58:06:b0:49:b5:25:16:
         a0:77:9b:5a
-----BEGIN CERTIFICATE-----
MIIDezCCAmOgAwIBAgIBATANBgkqhkiG9w0BAQsFADA3MQ8wDQYDVQQKDAZIYXNz
T1MxJDAiBgNVBAMMG0hhc3NPUyBQcm92aXNpb25pbmcgQ0EgUm9vdDAeFw0xODA1
MTUxNjM1NTRaFw0yODA1MTQxNjM1NTRaMDcxDzANBgNVBAoMBkhhc3NPUzEkMCIG
A1UEAwwbSGFzc09TIFByb3Zpc2lvbmluZyBDQSBSb290MIIBIjANBgkqhkiG9w0B
AQEFAAOCAQ8AMIIBCgKCAQEApYGWJPbrrAsQcjTIQXD1KZwcHtmmaKPqxeRo57V2
LhPgDv6OxC/Sdix2YxWNfn+Kn9iaZpS5tG9evKlZWRL6u3uvNJV53S2xPg4WJ5JA
nRVVNLl93WMuZPllRumy3mbY5RKdr8rbPkQVV48VF1idLZseeXvs6yizEYGjNLu1
XQika05+fuzT47nZLWboBL4J03WGj4aUAarBDX4odCfaxrjVv5Sg0vW/iHJAIf5M
qjkGNSnuwPXw8IXQa+rux7dUqt/p5M/NWhph5WO+PH9LbK55IAfgRMU9wt/4BGQi
K/sRz5kOuh9rUVbqJ8qmcHYZLxYkNdkKBc+2na6CSuBaxQIDAQABo4GRMIGOMB0G
A1UdDgQWBBRJaS2oJC+wrOaaAmrQ/Jqqc5ticTBfBgNVHSMEWDBWgBRJaS2oJC+w
rOaaAmrQ/Jqqc5ticaE7pDkwNzEPMA0GA1UECgwGSGFzc09TMSQwIgYDVQQDDBtI
YXNzT1MgUHJvdmlzaW9uaW5nIENBIFJvb3SCAQEwDAYDVR0TBAUwAwEB/zANBgkq
hkiG9w0BAQsFAAOCAQEACDUj/f3agFrJxbEunj2xV37qcs3E37RfpEeE1SVvwidm
beX8kZl9gX44CR3ZfjH920ujUvhqmFPd3b4hs96vAbXksabke0AnDNyJ5DR4Vhu7
AeMukO6Ui50u9zfaTLEC731TYn+bO+dwRKpOX9AWpRorYgueVQcSJTy/xCZSXhDF
tiWn9807Awe7Zo9K5oTDBjhDqyvDKXzLql8jLqfma13l3dnqLFlG5fNsc5vr73RW
k/DpPBcDV7YXP94vLh1qZdhxiG+tGUjTOgVG0mVx+pdzOAwd0oNIsRZhfPHbtgZb
Ro1FTPSvstq2ykdU9uc3nnrWDIhYBrBJtSUWoHebWg==
-----END CERTIFICATE-----
