Certificate:
    Data:
        Version: 3 (0x2)
        Serial Number:
            26:6a:d5:45:fa:1e:36:7b:50:2a:5c:01:2c:0d:fd:67:5a:c8:f5:b0
        Signature Algorithm: sha384WithRSAEncryption
        Issuer: O=HassOS, CN=HassOS Provisioning CA Root
        Validity
            Not Before: Jun  9 08:50:51 2026 GMT
            Not After : May 14 16:35:54 2028 GMT
        Subject: O=Home Assistant OS, CN=Home Assistant OS Provisioning CA Release
        Subject Public Key Info:
            Public Key Algorithm: id-ecPublicKey
                Public-Key: (384 bit)
                pub:
                    04:7b:03:3b:2f:4d:08:94:ed:c2:f4:d8:53:7d:cf:
                    54:0d:ea:f5:57:07:48:29:a4:fd:10:5d:ce:a8:90:
                    71:95:78:bc:a9:fe:c3:71:f6:6f:68:c1:7e:74:d4:
                    6e:fe:af:35:52:d1:f0:8e:25:ff:28:30:29:ce:67:
                    b1:4b:2e:59:b2:01:d7:94:7e:33:4d:56:e2:55:1e:
                    a1:65:64:d3:6a:77:6a:bc:8b:14:9f:3b:b8:6f:12:
                    a0:d5:7d:ae:ff:20:71
                ASN1 OID: secp384r1
                NIST CURVE: P-384
        X509v3 extensions:
            X509v3 Subject Key Identifier: 
                1F:AC:8A:E1:90:EA:B2:72:11:63:2A:3D:10:66:3C:0F:0A:29:FF:0A
            X509v3 Authority Key Identifier: 
                49:69:2D:A8:24:2F:B0:AC:E6:9A:02:6A:D0:FC:9A:AA:73:9B:62:71
            X509v3 Basic Constraints: critical
                CA:TRUE, pathlen:0
            X509v3 Key Usage: critical
                Certificate Sign, CRL Sign
    Signature Algorithm: sha384WithRSAEncryption
    Signature Value:
        61:15:87:59:63:f5:06:47:a4:c3:60:19:3a:ab:05:f9:7d:7e:
        1b:59:6d:fa:12:e3:71:67:30:d6:54:ad:f5:49:ff:15:b2:3f:
        e0:df:29:4a:76:db:16:e3:b6:7b:e6:28:fb:14:c2:e8:f7:ba:
        a3:14:94:93:f3:4f:b8:8c:6a:fd:09:8c:ce:f4:b0:4b:75:9c:
        d3:59:3f:fe:d4:97:49:2b:ae:cd:fa:6e:50:c0:fa:80:49:ec:
        53:9e:44:cb:0e:b0:23:e9:11:ad:23:ee:63:79:e2:02:e7:72:
        14:e6:ca:9b:b3:99:b2:8d:7a:f0:73:61:fe:e5:26:85:b6:01:
        fb:15:de:54:b0:a0:c7:32:df:98:ec:74:fa:e6:c0:a0:64:19:
        6a:7b:84:5c:8a:9f:88:2f:a3:4e:0d:41:6c:3b:ac:fb:73:4a:
        00:1f:bc:77:0c:b4:cb:5d:ec:e9:3f:c6:91:8c:e7:58:cf:18:
        5a:d9:d4:dc:6d:8d:d2:a3:7e:6d:dd:be:7e:51:df:ad:05:51:
        30:59:2e:46:b4:a8:25:d7:5f:2d:35:5b:77:0f:a6:0b:d6:12:
        fa:fb:b2:65:09:69:03:99:2d:3d:b8:4e:b7:1b:1f:31:2d:8f:
        79:29:00:9b:43:8c:38:62:84:e5:61:14:04:f5:86:36:d6:91:
        61:54:63:a5
-----BEGIN CERTIFICATE-----
MIICzTCCAbWgAwIBAgIUJmrVRfoeNntQKlwBLA39Z1rI9bAwDQYJKoZIhvcNAQEM
BQAwNzEPMA0GA1UECgwGSGFzc09TMSQwIgYDVQQDDBtIYXNzT1MgUHJvdmlzaW9u
aW5nIENBIFJvb3QwHhcNMjYwNjA5MDg1MDUxWhcNMjgwNTE0MTYzNTU0WjBQMRow
GAYDVQQKDBFIb21lIEFzc2lzdGFudCBPUzEyMDAGA1UEAwwpSG9tZSBBc3Npc3Rh
bnQgT1MgUHJvdmlzaW9uaW5nIENBIFJlbGVhc2UwdjAQBgcqhkjOPQIBBgUrgQQA
IgNiAAR7AzsvTQiU7cL02FN9z1QN6vVXB0gppP0QXc6okHGVeLyp/sNx9m9owX50
1G7+rzVS0fCOJf8oMCnOZ7FLLlmyAdeUfjNNVuJVHqFlZNNqd2q8ixSfO7hvEqDV
fa7/IHGjZjBkMB0GA1UdDgQWBBQfrIrhkOqychFjKj0QZjwPCin/CjAfBgNVHSME
GDAWgBRJaS2oJC+wrOaaAmrQ/Jqqc5ticTASBgNVHRMBAf8ECDAGAQH/AgEAMA4G
A1UdDwEB/wQEAwIBBjANBgkqhkiG9w0BAQwFAAOCAQEAYRWHWWP1Bkekw2AZOqsF
+X1+G1lt+hLjcWcw1lSt9Un/FbI/4N8pSnbbFuO2e+Yo+xTC6Pe6oxSUk/NPuIxq
/QmMzvSwS3Wc01k//tSXSSuuzfpuUMD6gEnsU55Eyw6wI+kRrSPuY3niAudyFObK
m7OZso168HNh/uUmhbYB+xXeVLCgxzLfmOx0+ubAoGQZanuEXIqfiC+jTg1BbDus
+3NKAB+8dwy0y13s6T/GkYznWM8YWtnU3G2N0qN+bd2+flHfrQVRMFkuRrSoJddf
LTVbdw+mC9YS+vuyZQlpA5ktPbhOtxsfMS2PeSkAm0OMOGKE5WEUBPWGNtaRYVRj
pQ==
-----END CERTIFICATE-----
